; Function Attrs: nounwind uwtable
define dso_local zeroext i1 @ConditionalLockTuple(ptr noundef readonly captures(none) %0, ptr noundef readonly captures(none) %1, i32 noundef %2) local_unnamed_addr #1 {
  %4 = alloca %struct.LOCKTAG, align 4
  call void @llvm.lifetime.start.p0(i64 16, ptr nonnull %4) #8
  %5 = getelementptr inbounds nuw i8, ptr %0, i64 76
  %6 = getelementptr inbounds nuw i8, ptr %0, i64 80
  %7 = load i32, ptr %6, align 4
  store i32 %7, ptr %4, align 4
  %8 = load i32, ptr %5, align 4
  %9 = getelementptr inbounds nuw i8, ptr %4, i64 4
  store i32 %8, ptr %9, align 4
  %.val = load i16, ptr %1, align 2
  %10 = getelementptr i8, ptr %1, i64 2
  %.val4 = load i16, ptr %10, align 2
  %11 = zext i16 %.val to i32
  %12 = shl nuw i32 %11, 16
  %13 = zext i16 %.val4 to i32
  %14 = or disjoint i32 %12, %13
  %15 = getelementptr inbounds nuw i8, ptr %4, i64 8
  store i32 %14, ptr %15, align 4
  %16 = getelementptr i8, ptr %1, i64 4
  %.val5 = load i16, ptr %16, align 2
  %17 = getelementptr inbounds nuw i8, ptr %4, i64 12
  store i16 %.val5, ptr %17, align 4
  %18 = getelementptr inbounds nuw i8, ptr %4, i64 14
  store i8 4, ptr %18, align 2
  %19 = getelementptr inbounds nuw i8, ptr %4, i64 15
  store i8 1, ptr %19, align 1
  %20 = call i32 @LockAcquire(ptr noundef nonnull %4, i32 noundef %2, i1 noundef zeroext false, i1 noundef zeroext true) #8
  %21 = icmp ne i32 %20, 0
  call void @llvm.lifetime.end.p0(i64 16, ptr nonnull %4) #8
  ret i1 %21
}